; Function Attrs: mustprogress nounwind uwtable
define hidden void @_ZN3sat14cut_simplifierD2Ev(ptr noundef nonnull align 8 dereferenceable(600) %this) unnamed_addr #4 align 2 personality ptr @__gxx_personality_v0 {
entry:
  %m_validator = getelementptr inbounds i8, ptr %this, i64 568
  %0 = load ptr, ptr %m_validator, align 8
  %cmp.i = icmp eq ptr %0, null
  br i1 %cmp.i, label %invoke.cont, label %if.end.i

if.end.i:                                         ; preds = %entry
  %m_assumptions.i.i = getelementptr inbounds i8, ptr %0, i64 16
  %1 = load ptr, ptr %m_assumptions.i.i, align 8
  %tobool.not.i.i.i.i.i = icmp eq ptr %1, null
  br i1 %tobool.not.i.i.i.i.i, label %_ZN3sat14cut_simplifier9validatorD2Ev.exit.i, label %if.then.i.i.i.i.i

if.then.i.i.i.i.i:                                ; preds = %if.end.i
  %add.ptr.i.i.i.i.i.i = getelementptr inbounds i8, ptr %1, i64 -8
  invoke void @_ZN6memory10deallocateEPv(ptr noundef nonnull %add.ptr.i.i.i.i.i.i)
          to label %_ZN3sat14cut_simplifier9validatorD2Ev.exit.i unwind label %terminate.lpad.i.i.i.i

terminate.lpad.i.i.i.i:                           ; preds = %if.then.i.i.i.i.i
  %2 = landingpad { ptr, i32 }
          catch ptr null
  %3 = extractvalue { ptr, i32 } %2, 0
  tail call void @__clang_call_terminate(ptr %3) #21
  unreachable

_ZN3sat14cut_simplifier9validatorD2Ev.exit.i:     ; preds = %if.then.i.i.i.i.i, %if.end.i
  %p.i.i = getelementptr inbounds i8, ptr %0, i64 8
  tail call void @_ZN10params_refD1Ev(ptr noundef nonnull align 8 dereferenceable(8) %p.i.i) #20
  invoke void @_ZN6memory10deallocateEPv(ptr noundef nonnull %0)
          to label %invoke.cont unwind label %terminate.lpad

invoke.cont:                                      ; preds = %entry, %_ZN3sat14cut_simplifier9validatorD2Ev.exit.i
  %m_bins = getelementptr inbounds i8, ptr %this, i64 576
  %4 = load ptr, ptr %m_bins, align 8
  %cmp.i.i.i.i = icmp eq ptr %4, null
  br i1 %cmp.i.i.i.i, label %_ZN9hashtableIN3sat14cut_simplifier7bin_relENS2_4hashENS2_2eqEED2Ev.exit, label %for.cond.preheader.i.i.i.i

for.cond.preheader.i.i.i.i:                       ; preds = %invoke.cont
  invoke void @_ZN6memory10deallocateEPv(ptr noundef nonnull %4)
          to label %_ZN9hashtableIN3sat14cut_simplifier7bin_relENS2_4hashENS2_2eqEED2Ev.exit unwind label %terminate.lpad.i.i

terminate.lpad.i.i:                               ; preds = %for.cond.preheader.i.i.i.i
  %5 = landingpad { ptr, i32 }
          catch ptr null
  %6 = extractvalue { ptr, i32 } %5, 0
  tail call void @__clang_call_terminate(ptr %6) #21
  unreachable

_ZN9hashtableIN3sat14cut_simplifier7bin_relENS2_4hashENS2_2eqEED2Ev.exit: ; preds = %invoke.cont, %for.cond.preheader.i.i.i.i
  store ptr null, ptr %m_bins, align 8
  %m_lits = getelementptr inbounds i8, ptr %this, i64 560
  %7 = load ptr, ptr %m_lits, align 8
  %tobool.not.i.i.i = icmp eq ptr %7, null
  br i1 %tobool.not.i.i.i, label %_ZN7svectorIN3sat7literalEjED2Ev.exit, label %if.then.i.i.i

if.then.i.i.i:                                    ; preds = %_ZN9hashtableIN3sat14cut_simplifier7bin_relENS2_4hashENS2_2eqEED2Ev.exit
  %add.ptr.i.i.i.i = getelementptr inbounds i8, ptr %7, i64 -8
  invoke void @_ZN6memory10deallocateEPv(ptr noundef nonnull %add.ptr.i.i.i.i)
          to label %_ZN7svectorIN3sat7literalEjED2Ev.exit unwind label %terminate.lpad.i.i1

terminate.lpad.i.i1:                              ; preds = %if.then.i.i.i
  %8 = landingpad { ptr, i32 }
          catch ptr null
  %9 = extractvalue { ptr, i32 } %8, 0
  tail call void @__clang_call_terminate(ptr %9) #21
  unreachable

_ZN7svectorIN3sat7literalEjED2Ev.exit:            ; preds = %_ZN9hashtableIN3sat14cut_simplifier7bin_relENS2_4hashENS2_2eqEED2Ev.exit, %if.then.i.i.i
  %m_aig_cuts = getelementptr inbounds i8, ptr %this, i64 72
  tail call void @_ZN3sat8aig_cutsD2Ev(ptr noundef nonnull align 8 dereferenceable(480) %m_aig_cuts) #20
  ret void

terminate.lpad:                                   ; preds = %_ZN3sat14cut_simplifier9validatorD2Ev.exit.i
  %10 = landingpad { ptr, i32 }
          catch ptr null
  %11 = extractvalue { ptr, i32 } %10, 0
  tail call void @__clang_call_terminate(ptr %11) #21
  unreachable
}